; Function Attrs: nounwind uwtable
define ptr @l_Lean_Compiler_LCNF_ToLCNF_toLCNF_visitLit___boxed(ptr noundef %0, ptr noundef %1, ptr noundef %2, ptr noundef %3, ptr noundef %4, ptr noundef %5, ptr noundef %6) local_unnamed_addr #1 {
  %8 = tail call ptr @l_Lean_Compiler_LCNF_ToLCNF_litToValue(ptr noundef %0)
  tail call void @lean_inc_heartbeat() #5
  %9 = tail call noalias ptr @mi_malloc_small(i64 noundef 16) #5
  %10 = icmp eq ptr %9, null
  br i1 %10, label %11, label %l_Lean_Compiler_LCNF_ToLCNF_toLCNF_visitLit.exit

11:                                               ; preds = %7
  tail call void @lean_internal_panic_out_of_memory() #6
  unreachable

l_Lean_Compiler_LCNF_ToLCNF_toLCNF_visitLit.exit: ; preds = %7
  %12 = getelementptr inbounds nuw i8, ptr %9, i64 4
  store i32 1, ptr %9, align 4, !tbaa !4
  store i32 65552, ptr %12, align 4
  %13 = getelementptr inbounds nuw i8, ptr %9, i64 8
  store ptr %8, ptr %13, align 8, !tbaa !9
  %14 = load ptr, ptr @l_Lean_Compiler_LCNF_ToLCNF_bindCases_go___closed__10, align 8, !tbaa !9
  %15 = tail call ptr @l_Lean_Compiler_LCNF_ToLCNF_letValueToArg(ptr noundef nonnull %9, ptr noundef %14, ptr noundef %1, ptr noundef %2, ptr noundef %3, ptr noundef %4, ptr noundef %5, ptr noundef %6)
  %16 = ptrtoint ptr %1 to i64
  %17 = and i64 %16, 1
  %.not = icmp eq i64 %17, 0
  br i1 %.not, label %18, label %lean_dec.exit

18:                                               ; preds = %l_Lean_Compiler_LCNF_ToLCNF_toLCNF_visitLit.exit
  %19 = load i32, ptr %1, align 4, !tbaa !4
  %20 = icmp sgt i32 %19, 1
  br i1 %20, label %21, label %23, !prof !11

21:                                               ; preds = %18
  %22 = add nsw i32 %19, -1
  store i32 %22, ptr %1, align 4, !tbaa !4
  br label %lean_dec.exit

23:                                               ; preds = %18
  %.not.i = icmp eq i32 %19, 0
  br i1 %.not.i, label %lean_dec.exit, label %24

24:                                               ; preds = %23
  tail call void @lean_dec_ref_cold(ptr noundef nonnull %1) #5
  br label %lean_dec.exit

lean_dec.exit:                                    ; preds = %24, %23, %21, %l_Lean_Compiler_LCNF_ToLCNF_toLCNF_visitLit.exit
  ret ptr %15
}